target datalayout = "e-m:e-p270:32:32-p271:32:32-p272:64:64-i64:64-i128:128-f80:128-n8:16:32:64-S128"
target triple = "x86_64-pc-linux-gnu"

%"class.std::__cxx11::basic_string" = type { %"struct.std::__cxx11::basic_string<char>::_Alloc_hider", i64, %union.anon }
%"struct.std::__cxx11::basic_string<char>::_Alloc_hider" = type { ptr }
%union.anon = type { i64, [8 x i8] }
%class.colvarproxy_io = type { ptr, %"class.std::__cxx11::basic_string", %"class.std::__cxx11::basic_string", %"class.std::__cxx11::basic_string", i32, %"class.std::map", ptr, %"class.std::map.3", ptr }
%"class.std::map" = type { %"class.std::_Rb_tree" }
%"class.std::_Rb_tree" = type { %"struct.std::_Rb_tree<std::__cxx11::basic_string<char>, std::pair<const std::__cxx11::basic_string<char>, std::basic_istream<char> *>, std::_Select1st<std::pair<const std::__cxx11::basic_string<char>, std::basic_istream<char> *>>, std::less<std::__cxx11::basic_string<char>>>::_Rb_tree_impl" }
%"struct.std::_Rb_tree<std::__cxx11::basic_string<char>, std::pair<const std::__cxx11::basic_string<char>, std::basic_istream<char> *>, std::_Select1st<std::pair<const std::__cxx11::basic_string<char>, std::basic_istream<char> *>>, std::less<std::__cxx11::basic_string<char>>>::_Rb_tree_impl" = type { [8 x i8], %"struct.std::_Rb_tree_header" }
%"struct.std::_Rb_tree_header" = type { %"struct.std::_Rb_tree_node_base", i64 }
%"struct.std::_Rb_tree_node_base" = type { i32, ptr, ptr, ptr }
%"class.std::map.3" = type { %"class.std::_Rb_tree.4" }
%"class.std::_Rb_tree.4" = type { %"struct.std::_Rb_tree<std::__cxx11::basic_string<char>, std::pair<const std::__cxx11::basic_string<char>, std::basic_ostream<char> *>, std::_Select1st<std::pair<const std::__cxx11::basic_string<char>, std::basic_ostream<char> *>>, std::less<std::__cxx11::basic_string<char>>>::_Rb_tree_impl" }
%"struct.std::_Rb_tree<std::__cxx11::basic_string<char>, std::pair<const std::__cxx11::basic_string<char>, std::basic_ostream<char> *>, std::_Select1st<std::pair<const std::__cxx11::basic_string<char>, std::basic_ostream<char> *>>, std::less<std::__cxx11::basic_string<char>>>::_Rb_tree_impl" = type { [8 x i8], %"struct.std::_Rb_tree_header" }
%"struct.std::_Rb_tree_node.8" = type { %"struct.std::_Rb_tree_node_base", %"struct.__gnu_cxx::__aligned_membuf.9" }
%"struct.__gnu_cxx::__aligned_membuf.9" = type { [40 x i8] }
%"struct.std::pair.10" = type { %"class.std::__cxx11::basic_string", ptr }
%"struct.std::_Rb_tree_const_iterator" = type { ptr }
%"class.std::__cxx11::list" = type { %"class.std::__cxx11::_List_base" }
%"class.std::__cxx11::_List_base" = type { %"struct.std::__cxx11::_List_base<std::__cxx11::basic_string<char>, std::allocator<std::__cxx11::basic_string<char>>>::_List_impl" }
%"struct.std::__cxx11::_List_base<std::__cxx11::basic_string<char>, std::allocator<std::__cxx11::basic_string<char>>>::_List_impl" = type { %"struct.std::__detail::_List_node_header" }
%"struct.std::__detail::_List_node_header" = type { %"struct.std::__detail::_List_node_base", i64 }
%"struct.std::__detail::_List_node_base" = type { ptr, ptr }
%"struct.std::_List_iterator" = type { ptr }

; Function Attrs: mustprogress nounwind uwtable
define linkonce_odr void @_ZNSt8__detail17_List_node_header7_M_initEv(ptr noundef nonnull align 8 dereferenceable(24) %0) #0 comdat align 2 {
  %2 = alloca ptr, align 8
  store ptr %0, ptr %2, align 8, !tbaa !236
  %3 = load ptr, ptr %2, align 8
  %4 = getelementptr inbounds nuw %"struct.std::__detail::_List_node_base", ptr %3, i32 0, i32 1
  store ptr %3, ptr %4, align 8, !tbaa !240
  %5 = getelementptr inbounds nuw %"struct.std::__detail::_List_node_base", ptr %3, i32 0, i32 0
  store ptr %3, ptr %5, align 8, !tbaa !243
  %6 = getelementptr inbounds nuw %"struct.std::__detail::_List_node_header", ptr %3, i32 0, i32 1
  store i64 0, ptr %6, align 8, !tbaa !244
  ret void
}

; Function Attrs: mustprogress nounwind uwtable
define linkonce_odr void @_ZNSt15__new_allocatorISt10_List_nodeINSt7__cxx1112basic_stringIcSt11char_traitsIcESaIcEEEEEC2Ev(ptr noundef nonnull align 1 dereferenceable(1) %0) unnamed_addr #0 comdat align 2 {
  %2 = alloca ptr, align 8
  store ptr %0, ptr %2, align 8, !tbaa !238
  ret void
}

; Function Attrs: mustprogress nounwind uwtable
define linkonce_odr noundef ptr @_ZNK9__gnu_cxx16__aligned_membufISt4pairIKNSt7__cxx1112basic_stringIcSt11char_traitsIcESaIcEEEPSiEE7_M_addrEv(ptr noundef nonnull align 8 dereferenceable(40) %0) #0 comdat align 2 {
  %2 = alloca ptr, align 8
  store ptr %0, ptr %2, align 8, !tbaa !151
  %3 = load ptr, ptr %2, align 8
  %4 = getelementptr inbounds nuw %"struct.__gnu_cxx::__aligned_membuf.9", ptr %3, i32 0, i32 0
  ret ptr %4
}

; Function Attrs: mustprogress nounwind uwtable
define linkonce_odr void @_ZNSt8__detail17_List_node_headerC2Ev(ptr noundef nonnull align 8 dereferenceable(24) %0) unnamed_addr #0 comdat align 2 {
  %2 = alloca ptr, align 8
  store ptr %0, ptr %2, align 8, !tbaa !236
  %3 = load ptr, ptr %2, align 8
  call void @_ZNSt8__detail17_List_node_header7_M_initEv(ptr noundef nonnull align 8 dereferenceable(24) %3) #18
  ret void
}

; Function Attrs: mustprogress nounwind uwtable
define linkonce_odr void @_ZNSaISt10_List_nodeINSt7__cxx1112basic_stringIcSt11char_traitsIcESaIcEEEEEC2Ev(ptr noundef nonnull align 1 dereferenceable(1) %0) unnamed_addr #0 comdat align 2 {
  %2 = alloca ptr, align 8
  store ptr %0, ptr %2, align 8, !tbaa !234
  %3 = load ptr, ptr %2, align 8
  call void @_ZNSt15__new_allocatorISt10_List_nodeINSt7__cxx1112basic_stringIcSt11char_traitsIcESaIcEEEEEC2Ev(ptr noundef nonnull align 1 dereferenceable(1) %3) #18
  ret void
}

; Function Attrs: mustprogress nounwind uwtable
define linkonce_odr void @_ZNSt14_List_iteratorINSt7__cxx1112basic_stringIcSt11char_traitsIcESaIcEEEEC2EPNSt8__detail15_List_node_baseE(ptr noundef nonnull align 8 dereferenceable(8) %0, ptr noundef %1) unnamed_addr #0 comdat align 2 {
  %3 = alloca ptr, align 8
  %4 = alloca ptr, align 8
  store ptr %0, ptr %3, align 8, !tbaa !262
  store ptr %1, ptr %4, align 8, !tbaa !264
  %5 = load ptr, ptr %3, align 8
  %6 = getelementptr inbounds nuw %"struct.std::_List_iterator", ptr %5, i32 0, i32 0
  %7 = load ptr, ptr %4, align 8, !tbaa !264
  store ptr %7, ptr %6, align 8, !tbaa !248
  ret void
}

; Function Attrs: mustprogress nounwind uwtable
define linkonce_odr noundef ptr @_ZNK9__gnu_cxx16__aligned_membufISt4pairIKNSt7__cxx1112basic_stringIcSt11char_traitsIcESaIcEEEPSiEE6_M_ptrEv(ptr noundef nonnull align 8 dereferenceable(40) %0) #0 comdat align 2 {
  %2 = alloca ptr, align 8
  store ptr %0, ptr %2, align 8, !tbaa !151
  %3 = load ptr, ptr %2, align 8
  %4 = call noundef ptr @_ZNK9__gnu_cxx16__aligned_membufISt4pairIKNSt7__cxx1112basic_stringIcSt11char_traitsIcESaIcEEEPSiEE7_M_addrEv(ptr noundef nonnull align 8 dereferenceable(40) %3) #18
  ret ptr %4
}

; Function Attrs: mustprogress nounwind uwtable
define linkonce_odr void @_ZNSt23_Rb_tree_const_iteratorISt4pairIKNSt7__cxx1112basic_stringIcSt11char_traitsIcESaIcEEEPSiEEC2EPKSt18_Rb_tree_node_base(ptr noundef nonnull align 8 dereferenceable(8) %0, ptr noundef %1) unnamed_addr #0 comdat align 2 {
  %3 = alloca ptr, align 8
  %4 = alloca ptr, align 8
  store ptr %0, ptr %3, align 8, !tbaa !187
  store ptr %1, ptr %4, align 8, !tbaa !139
  %5 = load ptr, ptr %3, align 8
  %6 = getelementptr inbounds nuw %"struct.std::_Rb_tree_const_iterator", ptr %5, i32 0, i32 0
  %7 = load ptr, ptr %4, align 8, !tbaa !139
  store ptr %7, ptr %6, align 8, !tbaa !189
  ret void
}

; Function Attrs: mustprogress nounwind uwtable
define linkonce_odr void @_ZNSt7__cxx1110_List_baseINS_12basic_stringIcSt11char_traitsIcESaIcEEESaIS5_EE10_List_implC2Ev(ptr noundef nonnull align 8 dereferenceable(24) %0) unnamed_addr #0 comdat align 2 {
  %2 = alloca ptr, align 8
  store ptr %0, ptr %2, align 8, !tbaa !232
  %3 = load ptr, ptr %2, align 8
  call void @_ZNSaISt10_List_nodeINSt7__cxx1112basic_stringIcSt11char_traitsIcESaIcEEEEEC2Ev(ptr noundef nonnull align 1 dereferenceable(1) %3) #18
  %4 = getelementptr inbounds nuw %"struct.std::__cxx11::_List_base<std::__cxx11::basic_string<char>, std::allocator<std::__cxx11::basic_string<char>>>::_List_impl", ptr %3, i32 0, i32 0
  call void @_ZNSt8__detail17_List_node_headerC2Ev(ptr noundef nonnull align 8 dereferenceable(24) %4) #18
  ret void
}

; Function Attrs: mustprogress nounwind uwtable
define linkonce_odr ptr @_ZNSt7__cxx114listINS_12basic_stringIcSt11char_traitsIcESaIcEEESaIS5_EE3endEv(ptr noundef nonnull align 8 dereferenceable(24) %0) #0 comdat align 2 {
  %2 = alloca %"struct.std::_List_iterator", align 8
  %3 = alloca ptr, align 8
  store ptr %0, ptr %3, align 8, !tbaa !228
  %4 = load ptr, ptr %3, align 8
  %5 = getelementptr inbounds nuw %"class.std::__cxx11::_List_base", ptr %4, i32 0, i32 0
  %6 = getelementptr inbounds nuw %"struct.std::__cxx11::_List_base<std::__cxx11::basic_string<char>, std::allocator<std::__cxx11::basic_string<char>>>::_List_impl", ptr %5, i32 0, i32 0
  call void @_ZNSt14_List_iteratorINSt7__cxx1112basic_stringIcSt11char_traitsIcESaIcEEEEC2EPNSt8__detail15_List_node_baseE(ptr noundef nonnull align 8 dereferenceable(8) %2, ptr noundef %6) #18
  %7 = getelementptr inbounds nuw %"struct.std::_List_iterator", ptr %2, i32 0, i32 0
  %8 = load ptr, ptr %7, align 8
  ret ptr %8
}

; Function Attrs: mustprogress nounwind uwtable
define linkonce_odr noundef ptr @_ZNKSt13_Rb_tree_nodeISt4pairIKNSt7__cxx1112basic_stringIcSt11char_traitsIcESaIcEEEPSiEE9_M_valptrEv(ptr noundef nonnull align 8 dereferenceable(72) %0) #0 comdat align 2 {
  %2 = alloca ptr, align 8
  store ptr %0, ptr %2, align 8, !tbaa !146
  %3 = load ptr, ptr %2, align 8
  %4 = getelementptr inbounds nuw %"struct.std::_Rb_tree_node.8", ptr %3, i32 0, i32 1
  %5 = call noundef ptr @_ZNK9__gnu_cxx16__aligned_membufISt4pairIKNSt7__cxx1112basic_stringIcSt11char_traitsIcESaIcEEEPSiEE6_M_ptrEv(ptr noundef nonnull align 8 dereferenceable(40) %4) #18
  ret ptr %5
}

; Function Attrs: mustprogress nounwind uwtable
define linkonce_odr ptr @_ZNKSt8_Rb_treeINSt7__cxx1112basic_stringIcSt11char_traitsIcESaIcEEESt4pairIKS5_PSiESt10_Select1stIS9_ESt4lessIS5_ESaIS9_EE3endEv(ptr noundef nonnull align 8 dereferenceable(48) %0) #0 comdat align 2 {
  %2 = alloca %"struct.std::_Rb_tree_const_iterator", align 8
  %3 = alloca ptr, align 8
  store ptr %0, ptr %3, align 8, !tbaa !71
  %4 = load ptr, ptr %3, align 8
  %5 = getelementptr inbounds nuw %"class.std::_Rb_tree", ptr %4, i32 0, i32 0
  %6 = getelementptr inbounds i8, ptr %5, i64 8
  %7 = getelementptr inbounds nuw %"struct.std::_Rb_tree_header", ptr %6, i32 0, i32 0
  call void @_ZNSt23_Rb_tree_const_iteratorISt4pairIKNSt7__cxx1112basic_stringIcSt11char_traitsIcESaIcEEEPSiEEC2EPKSt18_Rb_tree_node_base(ptr noundef nonnull align 8 dereferenceable(8) %2, ptr noundef %7) #18
  %8 = getelementptr inbounds nuw %"struct.std::_Rb_tree_const_iterator", ptr %2, i32 0, i32 0
  %9 = load ptr, ptr %8, align 8
  ret ptr %9
}

; Function Attrs: mustprogress nounwind uwtable
define linkonce_odr ptr @_ZNKSt8_Rb_treeINSt7__cxx1112basic_stringIcSt11char_traitsIcESaIcEEESt4pairIKS5_PSiESt10_Select1stIS9_ESt4lessIS5_ESaIS9_EE5beginEv(ptr noundef nonnull align 8 dereferenceable(48) %0) #0 comdat align 2 {
  %2 = alloca %"struct.std::_Rb_tree_const_iterator", align 8
  %3 = alloca ptr, align 8
  store ptr %0, ptr %3, align 8, !tbaa !71
  %4 = load ptr, ptr %3, align 8
  %5 = getelementptr inbounds nuw %"class.std::_Rb_tree", ptr %4, i32 0, i32 0
  %6 = getelementptr inbounds i8, ptr %5, i64 8
  %7 = getelementptr inbounds nuw %"struct.std::_Rb_tree_header", ptr %6, i32 0, i32 0
  %8 = getelementptr inbounds nuw %"struct.std::_Rb_tree_node_base", ptr %7, i32 0, i32 2
  %9 = load ptr, ptr %8, align 8, !tbaa !85
  call void @_ZNSt23_Rb_tree_const_iteratorISt4pairIKNSt7__cxx1112basic_stringIcSt11char_traitsIcESaIcEEEPSiEEC2EPKSt18_Rb_tree_node_base(ptr noundef nonnull align 8 dereferenceable(8) %2, ptr noundef %9) #18
  %10 = getelementptr inbounds nuw %"struct.std::_Rb_tree_const_iterator", ptr %2, i32 0, i32 0
  %11 = load ptr, ptr %10, align 8
  ret ptr %11
}

; Function Attrs: mustprogress nounwind uwtable
define linkonce_odr void @_ZNSt7__cxx1110_List_baseINS_12basic_stringIcSt11char_traitsIcESaIcEEESaIS5_EEC2Ev(ptr noundef nonnull align 8 dereferenceable(24) %0) unnamed_addr #0 comdat align 2 {
  %2 = alloca ptr, align 8
  store ptr %0, ptr %2, align 8, !tbaa !230
  %3 = load ptr, ptr %2, align 8
  %4 = getelementptr inbounds nuw %"class.std::__cxx11::_List_base", ptr %3, i32 0, i32 0
  call void @_ZNSt7__cxx1110_List_baseINS_12basic_stringIcSt11char_traitsIcESaIcEEESaIS5_EE10_List_implC2Ev(ptr noundef nonnull align 8 dereferenceable(24) %4) #18
  ret void
}

; Function Attrs: mustprogress nounwind uwtable
define linkonce_odr ptr @_ZNSt23_Rb_tree_const_iteratorISt4pairIKNSt7__cxx1112basic_stringIcSt11char_traitsIcESaIcEEEPSiEEppEi(ptr noundef nonnull align 8 dereferenceable(8) %0, i32 noundef %1) #0 comdat align 2 {
  %3 = alloca %"struct.std::_Rb_tree_const_iterator", align 8
  %4 = alloca ptr, align 8
  %5 = alloca i32, align 4
  store ptr %0, ptr %4, align 8, !tbaa !187
  store i32 %1, ptr %5, align 4, !tbaa !15
  %6 = load ptr, ptr %4, align 8
  call void @llvm.memcpy.p0.p0.i64(ptr align 8 %3, ptr align 8 %6, i64 8, i1 false), !tbaa.struct !171
  %7 = getelementptr inbounds nuw %"struct.std::_Rb_tree_const_iterator", ptr %6, i32 0, i32 0
  %8 = load ptr, ptr %7, align 8, !tbaa !189
  %9 = call noundef ptr @_ZSt18_Rb_tree_incrementPKSt18_Rb_tree_node_base(ptr noundef %8) #14
  %10 = getelementptr inbounds nuw %"struct.std::_Rb_tree_const_iterator", ptr %6, i32 0, i32 0
  store ptr %9, ptr %10, align 8, !tbaa !189
  %11 = getelementptr inbounds nuw %"struct.std::_Rb_tree_const_iterator", ptr %3, i32 0, i32 0
  %12 = load ptr, ptr %11, align 8
  ret ptr %12
}

; Function Attrs: mustprogress uwtable
define linkonce_odr void @_ZNSt7__cxx114listINS_12basic_stringIcSt11char_traitsIcESaIcEEESaIS5_EE9push_backERKS5_(ptr noundef nonnull align 8 dereferenceable(24) %0, ptr noundef nonnull align 8 dereferenceable(32) %1) #1 comdat align 2 {
  %3 = alloca ptr, align 8
  %4 = alloca ptr, align 8
  %5 = alloca %"struct.std::_List_iterator", align 8
  store ptr %0, ptr %3, align 8, !tbaa !228
  store ptr %1, ptr %4, align 8, !tbaa !22
  %6 = load ptr, ptr %3, align 8
  %7 = call ptr @_ZNSt7__cxx114listINS_12basic_stringIcSt11char_traitsIcESaIcEEESaIS5_EE3endEv(ptr noundef nonnull align 8 dereferenceable(24) %6) #18
  %8 = getelementptr inbounds nuw %"struct.std::_List_iterator", ptr %5, i32 0, i32 0
  store ptr %7, ptr %8, align 8
  %9 = load ptr, ptr %4, align 8, !tbaa !22
  %10 = getelementptr inbounds nuw %"struct.std::_List_iterator", ptr %5, i32 0, i32 0
  %11 = load ptr, ptr %10, align 8
  call void @_ZNSt7__cxx114listINS_12basic_stringIcSt11char_traitsIcESaIcEEESaIS5_EE9_M_insertIJRKS5_EEEvSt14_List_iteratorIS5_EDpOT_(ptr noundef nonnull align 8 dereferenceable(24) %6, ptr %11, ptr noundef nonnull align 8 dereferenceable(32) %9)
  ret void
}

; Function Attrs: mustprogress nounwind uwtable
define linkonce_odr noundef ptr @_ZNKSt23_Rb_tree_const_iteratorISt4pairIKNSt7__cxx1112basic_stringIcSt11char_traitsIcESaIcEEEPSiEEptEv(ptr noundef nonnull align 8 dereferenceable(8) %0) #0 comdat align 2 {
  %2 = alloca ptr, align 8
  store ptr %0, ptr %2, align 8, !tbaa !187
  %3 = load ptr, ptr %2, align 8
  %4 = getelementptr inbounds nuw %"struct.std::_Rb_tree_const_iterator", ptr %3, i32 0, i32 0
  %5 = load ptr, ptr %4, align 8, !tbaa !189
  %6 = call noundef ptr @_ZNKSt13_Rb_tree_nodeISt4pairIKNSt7__cxx1112basic_stringIcSt11char_traitsIcESaIcEEEPSiEE9_M_valptrEv(ptr noundef nonnull align 8 dereferenceable(72) %5)
  ret ptr %6
}

; Function Attrs: mustprogress nounwind uwtable
define linkonce_odr noundef zeroext i1 @_ZStneRKSt23_Rb_tree_const_iteratorISt4pairIKNSt7__cxx1112basic_stringIcSt11char_traitsIcESaIcEEEPSiEESC_(ptr noundef nonnull align 8 dereferenceable(8) %0, ptr noundef nonnull align 8 dereferenceable(8) %1) #0 comdat {
  %3 = alloca ptr, align 8
  %4 = alloca ptr, align 8
  store ptr %0, ptr %3, align 8, !tbaa !187
  store ptr %1, ptr %4, align 8, !tbaa !187
  %5 = load ptr, ptr %3, align 8, !tbaa !187
  %6 = getelementptr inbounds nuw %"struct.std::_Rb_tree_const_iterator", ptr %5, i32 0, i32 0
  %7 = load ptr, ptr %6, align 8, !tbaa !189
  %8 = load ptr, ptr %4, align 8, !tbaa !187
  %9 = getelementptr inbounds nuw %"struct.std::_Rb_tree_const_iterator", ptr %8, i32 0, i32 0
  %10 = load ptr, ptr %9, align 8, !tbaa !189
  %11 = icmp ne ptr %7, %10
  ret i1 %11
}

; Function Attrs: mustprogress nounwind uwtable
define linkonce_odr ptr @_ZNKSt3mapINSt7__cxx1112basic_stringIcSt11char_traitsIcESaIcEEEPSiSt4lessIS5_ESaISt4pairIKS5_S6_EEE3endEv(ptr noundef nonnull align 8 dereferenceable(48) %0) #0 comdat align 2 {
  %2 = alloca %"struct.std::_Rb_tree_const_iterator", align 8
  %3 = alloca ptr, align 8
  store ptr %0, ptr %3, align 8, !tbaa !49
  %4 = load ptr, ptr %3, align 8
  %5 = getelementptr inbounds nuw %"class.std::map", ptr %4, i32 0, i32 0
  %6 = call ptr @_ZNKSt8_Rb_treeINSt7__cxx1112basic_stringIcSt11char_traitsIcESaIcEEESt4pairIKS5_PSiESt10_Select1stIS9_ESt4lessIS5_ESaIS9_EE3endEv(ptr noundef nonnull align 8 dereferenceable(48) %5) #18
  %7 = getelementptr inbounds nuw %"struct.std::_Rb_tree_const_iterator", ptr %2, i32 0, i32 0
  store ptr %6, ptr %7, align 8
  %8 = getelementptr inbounds nuw %"struct.std::_Rb_tree_const_iterator", ptr %2, i32 0, i32 0
  %9 = load ptr, ptr %8, align 8
  ret ptr %9
}

; Function Attrs: mustprogress nounwind uwtable
define linkonce_odr ptr @_ZNKSt3mapINSt7__cxx1112basic_stringIcSt11char_traitsIcESaIcEEEPSiSt4lessIS5_ESaISt4pairIKS5_S6_EEE5beginEv(ptr noundef nonnull align 8 dereferenceable(48) %0) #0 comdat align 2 {
  %2 = alloca %"struct.std::_Rb_tree_const_iterator", align 8
  %3 = alloca ptr, align 8
  store ptr %0, ptr %3, align 8, !tbaa !49
  %4 = load ptr, ptr %3, align 8
  %5 = getelementptr inbounds nuw %"class.std::map", ptr %4, i32 0, i32 0
  %6 = call ptr @_ZNKSt8_Rb_treeINSt7__cxx1112basic_stringIcSt11char_traitsIcESaIcEEESt4pairIKS5_PSiESt10_Select1stIS9_ESt4lessIS5_ESaIS9_EE5beginEv(ptr noundef nonnull align 8 dereferenceable(48) %5) #18
  %7 = getelementptr inbounds nuw %"struct.std::_Rb_tree_const_iterator", ptr %2, i32 0, i32 0
  store ptr %6, ptr %7, align 8
  %8 = getelementptr inbounds nuw %"struct.std::_Rb_tree_const_iterator", ptr %2, i32 0, i32 0
  %9 = load ptr, ptr %8, align 8
  ret ptr %9
}

; Function Attrs: mustprogress nounwind uwtable
define linkonce_odr void @_ZNSt7__cxx114listINS_12basic_stringIcSt11char_traitsIcESaIcEEESaIS5_EEC2Ev(ptr noundef nonnull align 8 dereferenceable(24) %0) unnamed_addr #0 comdat align 2 {
  %2 = alloca ptr, align 8
  store ptr %0, ptr %2, align 8, !tbaa !228
  %3 = load ptr, ptr %2, align 8
  call void @_ZNSt7__cxx1110_List_baseINS_12basic_stringIcSt11char_traitsIcESaIcEEESaIS5_EEC2Ev(ptr noundef nonnull align 8 dereferenceable(24) %3) #18
  ret void
}

; Function Attrs: mustprogress uwtable
define void @_ZNK14colvarproxy_io23list_input_stream_namesB5cxx11Ev(ptr dead_on_unwind noalias writable sret(%"class.std::__cxx11::list") align 8 %0, ptr noundef nonnull align 8 dereferenceable(224) %1) #1 align 2 personality ptr @__gxx_personality_v0 {
  %3 = alloca ptr, align 8
  %4 = alloca ptr, align 8
  %5 = alloca i1, align 1
  %6 = alloca %"struct.std::_Rb_tree_const_iterator", align 8
  %7 = alloca %"struct.std::_Rb_tree_const_iterator", align 8
  %8 = alloca ptr, align 8
  %9 = alloca i32, align 4
  %10 = alloca %"struct.std::_Rb_tree_const_iterator", align 8
  store ptr %0, ptr %3, align 8
  store ptr %1, ptr %4, align 8, !tbaa !4
  %11 = load ptr, ptr %4, align 8
  store i1 false, ptr %5, align 1
  call void @_ZNSt7__cxx114listINS_12basic_stringIcSt11char_traitsIcESaIcEEESaIS5_EEC2Ev(ptr noundef nonnull align 8 dereferenceable(24) %0) #18
  call void @llvm.lifetime.start.p0(i64 8, ptr %6) #18
  %12 = getelementptr inbounds nuw %class.colvarproxy_io, ptr %11, i32 0, i32 5
  %13 = call ptr @_ZNKSt3mapINSt7__cxx1112basic_stringIcSt11char_traitsIcESaIcEEEPSiSt4lessIS5_ESaISt4pairIKS5_S6_EEE5beginEv(ptr noundef nonnull align 8 dereferenceable(48) %12) #18
  %14 = getelementptr inbounds nuw %"struct.std::_Rb_tree_const_iterator", ptr %6, i32 0, i32 0
  store ptr %13, ptr %14, align 8
  br label %15

15:                                               ; preds = %25, %2
  call void @llvm.lifetime.start.p0(i64 8, ptr %7) #18
  %16 = getelementptr inbounds nuw %class.colvarproxy_io, ptr %11, i32 0, i32 5
  %17 = call ptr @_ZNKSt3mapINSt7__cxx1112basic_stringIcSt11char_traitsIcESaIcEEEPSiSt4lessIS5_ESaISt4pairIKS5_S6_EEE3endEv(ptr noundef nonnull align 8 dereferenceable(48) %16) #18
  %18 = getelementptr inbounds nuw %"struct.std::_Rb_tree_const_iterator", ptr %7, i32 0, i32 0
  store ptr %17, ptr %18, align 8
  %19 = call noundef zeroext i1 @_ZStneRKSt23_Rb_tree_const_iteratorISt4pairIKNSt7__cxx1112basic_stringIcSt11char_traitsIcESaIcEEEPSiEESC_(ptr noundef nonnull align 8 dereferenceable(8) %6, ptr noundef nonnull align 8 dereferenceable(8) %7) #18
  call void @llvm.lifetime.end.p0(i64 8, ptr %7) #18
  br i1 %19, label %21, label %20

20:                                               ; preds = %15
  call void @llvm.lifetime.end.p0(i64 8, ptr %6) #18
  br label %32

21:                                               ; preds = %15
  %22 = call noundef ptr @_ZNKSt23_Rb_tree_const_iteratorISt4pairIKNSt7__cxx1112basic_stringIcSt11char_traitsIcESaIcEEEPSiEEptEv(ptr noundef nonnull align 8 dereferenceable(8) %6) #18
  %23 = getelementptr inbounds nuw %"struct.std::pair.10", ptr %22, i32 0, i32 0
  invoke void @_ZNSt7__cxx114listINS_12basic_stringIcSt11char_traitsIcESaIcEEESaIS5_EE9push_backERKS5_(ptr noundef nonnull align 8 dereferenceable(24) %0, ptr noundef nonnull align 8 dereferenceable(32) %23)
          to label %24 unwind label %28

24:                                               ; preds = %21
  br label %25

25:                                               ; preds = %24
  %26 = call ptr @_ZNSt23_Rb_tree_const_iteratorISt4pairIKNSt7__cxx1112basic_stringIcSt11char_traitsIcESaIcEEEPSiEEppEi(ptr noundef nonnull align 8 dereferenceable(8) %6, i32 noundef 0) #18
  %27 = getelementptr inbounds nuw %"struct.std::_Rb_tree_const_iterator", ptr %10, i32 0, i32 0
  store ptr %26, ptr %27, align 8
  br label %15, !llvm.loop !227

28:                                               ; preds = %21
  %29 = landingpad { ptr, i32 }
          cleanup
  %30 = extractvalue { ptr, i32 } %29, 0
  store ptr %30, ptr %8, align 8
  %31 = extractvalue { ptr, i32 } %29, 1
  store i32 %31, ptr %9, align 4
  call void @llvm.lifetime.end.p0(i64 8, ptr %6) #18
  call void @_ZNSt7__cxx1110_List_baseINS_12basic_stringIcSt11char_traitsIcESaIcEEESaIS5_EED2Ev(ptr noundef nonnull align 8 dereferenceable(24) %0) #18
  br label %36

32:                                               ; preds = %20
  store i1 true, ptr %5, align 1
  %33 = load i1, ptr %5, align 1
  br i1 %33, label %35, label %34

34:                                               ; preds = %32
  call void @_ZNSt7__cxx1110_List_baseINS_12basic_stringIcSt11char_traitsIcESaIcEEESaIS5_EED2Ev(ptr noundef nonnull align 8 dereferenceable(24) %0) #18
  br label %35

35:                                               ; preds = %34, %32
  ret void

36:                                               ; preds = %28
  %37 = load ptr, ptr %8, align 8
  %38 = load i32, ptr %9, align 4
  %39 = insertvalue { ptr, i32 } poison, ptr %37, 0
  %40 = insertvalue { ptr, i32 } %39, i32 %38, 1
  resume { ptr, i32 } %40
}