; Function Attrs: mustprogress uwtable
define void @_ZNK14colvarproxy_io23list_input_stream_namesB5cxx11Ev(ptr dead_on_unwind noalias writable sret(%"class.std::__cxx11::list") align 8 %0, ptr noundef nonnull readonly align 8 dereferenceable(224) %1) local_unnamed_addr #2 align 2 personality ptr @__gxx_personality_v0 {
  %3 = getelementptr inbounds nuw i8, ptr %0, i64 8
  store ptr %0, ptr %3, align 8, !tbaa !143
  store ptr %0, ptr %0, align 8, !tbaa !146
  %4 = getelementptr inbounds nuw i8, ptr %0, i64 16
  store i64 0, ptr %4, align 8, !tbaa !147
  %5 = getelementptr inbounds nuw i8, ptr %1, i64 136
  %6 = load ptr, ptr %5, align 8, !tbaa !91
  %7 = getelementptr inbounds nuw i8, ptr %1, i64 120
  %.not5 = icmp eq ptr %6, %7
  br i1 %.not5, label %._crit_edge, label %.lr.ph

._crit_edge:                                      ; preds = %_ZNSt7__cxx114listINS_12basic_stringIcSt11char_traitsIcESaIcEEESaIS5_EE9push_backERKS5_.exit, %2
  ret void

.lr.ph:                                           ; preds = %2, %_ZNSt7__cxx114listINS_12basic_stringIcSt11char_traitsIcESaIcEEESaIS5_EE9push_backERKS5_.exit
  %.sroa.03.06 = phi ptr [ %9, %_ZNSt7__cxx114listINS_12basic_stringIcSt11char_traitsIcESaIcEEESaIS5_EE9push_backERKS5_.exit ], [ %6, %2 ]
  %8 = getelementptr inbounds nuw i8, ptr %.sroa.03.06, i64 32
  invoke void @_ZNSt7__cxx114listINS_12basic_stringIcSt11char_traitsIcESaIcEEESaIS5_EE9_M_insertIJRKS5_EEEvSt14_List_iteratorIS5_EDpOT_(ptr noundef nonnull align 8 dereferenceable(24) %0, ptr nonnull align 8 dereferenceable(24) %0, ptr noundef nonnull align 8 dereferenceable(32) %8)
          to label %_ZNSt7__cxx114listINS_12basic_stringIcSt11char_traitsIcESaIcEEESaIS5_EE9push_backERKS5_.exit unwind label %10

_ZNSt7__cxx114listINS_12basic_stringIcSt11char_traitsIcESaIcEEESaIS5_EE9push_backERKS5_.exit: ; preds = %.lr.ph
  %9 = tail call noundef ptr @_ZSt18_Rb_tree_incrementPKSt18_Rb_tree_node_base(ptr noundef nonnull %.sroa.03.06) #27
  %.not = icmp eq ptr %9, %7
  br i1 %.not, label %._crit_edge, label %.lr.ph, !llvm.loop !149

10:                                               ; preds = %.lr.ph
  %11 = landingpad { ptr, i32 }
          cleanup
  tail call void @_ZNSt7__cxx1110_List_baseINS_12basic_stringIcSt11char_traitsIcESaIcEEESaIS5_EED2Ev(ptr noundef nonnull align 8 dereferenceable(24) %0) #22
  resume { ptr, i32 } %11
}